; Function Attrs: mustprogress uwtable
define internal void @"_ZN4LuauL8fnVisitVIRZNS_12_GLOBAL__N_18StateDot13visitChildrenEPKNS_4TypeEiE3$_0KNS_11GenericTypeEEEvRT_PNSt11conditionalIXsr3stdE10is_const_vIT0_EEKvvE4typeE"(ptr noundef nonnull readonly align 8 captures(none) dereferenceable(24) %0, ptr noundef readonly captures(none) %1) #2 {
  %3 = getelementptr i8, ptr %1, i64 56
  %.val2 = load i8, ptr %3, align 8, !tbaa !175, !range !54, !noundef !55
  %4 = load ptr, ptr %0, align 8, !tbaa !66
  %5 = trunc nuw i8 %.val2 to i1
  %6 = getelementptr inbounds nuw i8, ptr %4, i64 240
  br i1 %5, label %7, label %9

7:                                                ; preds = %2
  %8 = getelementptr i8, ptr %1, i64 24
  %.val = load ptr, ptr %8, align 8
  tail call void (ptr, ptr, ...) @_ZN4Luau12formatAppendERNSt7__cxx1112basic_stringIcSt11char_traitsIcESaIcEEEPKcz(ptr noundef nonnull align 8 dereferenceable(32) %6, ptr noundef nonnull @.str.74, ptr noundef %.val)
  br label %13

9:                                                ; preds = %2
  %10 = getelementptr inbounds nuw i8, ptr %0, i64 8
  %11 = load ptr, ptr %10, align 8, !tbaa !165
  %12 = load i32, ptr %11, align 4, !tbaa !4
  tail call void (ptr, ptr, ...) @_ZN4Luau12formatAppendERNSt7__cxx1112basic_stringIcSt11char_traitsIcESaIcEEEPKcz(ptr noundef nonnull align 8 dereferenceable(32) %6, ptr noundef nonnull @.str.75, i32 noundef %12)
  br label %13

13:                                               ; preds = %9, %7
  %14 = load i8, ptr %4, align 8, !tbaa !97, !range !54, !noundef !55
  %15 = trunc nuw i8 %14 to i1
  br i1 %15, label %16, label %20

16:                                               ; preds = %13
  %17 = getelementptr inbounds nuw i8, ptr %0, i64 16
  %18 = load ptr, ptr %17, align 8, !tbaa !166
  %19 = load ptr, ptr %18, align 8, !tbaa !47
  tail call void (ptr, ptr, ...) @_ZN4Luau12formatAppendERNSt7__cxx1112basic_stringIcSt11char_traitsIcESaIcEEEPKcz(ptr noundef nonnull align 8 dereferenceable(32) %6, ptr noundef nonnull @.str.67, ptr noundef %19)
  br label %20

20:                                               ; preds = %16, %13
  %21 = getelementptr inbounds nuw i8, ptr %4, i64 248
  %22 = load i64, ptr %21, align 8, !tbaa !41
  %23 = icmp eq i64 %22, 4611686018427387903
  br i1 %23, label %24, label %"_ZZN4Luau12_GLOBAL__N_18StateDot13visitChildrenEPKNS_4TypeEiENK3$_0clIRKNS_11GenericTypeEEEDaOT_.exit"

24:                                               ; preds = %20
  tail call void @_ZSt20__throw_length_errorPKc(ptr noundef nonnull @.str.122) #18
  unreachable

"_ZZN4Luau12_GLOBAL__N_18StateDot13visitChildrenEPKNS_4TypeEiENK3$_0clIRKNS_11GenericTypeEEEDaOT_.exit": ; preds = %20
  %25 = tail call noundef nonnull align 8 dereferenceable(32) ptr @_ZNSt7__cxx1112basic_stringIcSt11char_traitsIcESaIcEE9_M_appendEPKcm(ptr noundef nonnull align 8 dereferenceable(32) %6, ptr noundef nonnull @.str.68, i64 noundef 1)
  tail call void (ptr, ptr, ...) @_ZN4Luau12formatAppendERNSt7__cxx1112basic_stringIcSt11char_traitsIcESaIcEEEPKcz(ptr noundef nonnull align 8 dereferenceable(32) %6, ptr noundef nonnull @.str.69)
  ret void
}